; Function Attrs: null_pointer_is_valid sspstrong uwtable
define internal void @dissect_osd_flush(ptr noundef %0, ptr noundef %1, ptr noundef %2, i32 noundef %3, i1 noundef zeroext %4, i1 noundef zeroext %5, i32 %6, ptr noundef captures(address_is_null) %7, ptr readnone captures(none) %8, ptr noundef %9) #3 {
  %.not = xor i1 %4, true
  %brmerge.not = and i1 %4, %5
  br i1 %brmerge.not, label %11, label %53

11:                                               ; preds = %10
  %12 = load i32, ptr @hf_scsi_osd_flush_scope, align 4
  %13 = tail call ptr @proto_tree_add_item(ptr noundef %2, i32 noundef %12, ptr noundef %0, i32 noundef %3, i32 noundef 1, i32 noundef 0)
  %14 = add i32 %3, 1
  %.not.i = icmp eq ptr %7, null
  br i1 %.not.i, label %dissect_osd_getsetattrib.exit, label %15

15:                                               ; preds = %11
  %16 = getelementptr inbounds nuw i8, ptr %7, i64 8
  %17 = load ptr, ptr %16, align 8
  %.not11.i = icmp eq ptr %17, null
  br i1 %.not11.i, label %dissect_osd_getsetattrib.exit, label %18

18:                                               ; preds = %15
  %19 = getelementptr inbounds nuw i8, ptr %17, i64 64
  %20 = load ptr, ptr %19, align 8
  %.not12.i = icmp eq ptr %20, null
  br i1 %.not12.i, label %dissect_osd_getsetattrib.exit, label %21

21:                                               ; preds = %18
  %22 = tail call zeroext i8 @tvb_get_uint8(ptr noundef %0, i32 noundef %14)
  %23 = lshr i8 %22, 4
  %24 = and i8 %23, 3
  %25 = getelementptr inbounds nuw i8, ptr %20, i64 2
  store i8 %24, ptr %25, align 2
  br label %dissect_osd_getsetattrib.exit

dissect_osd_getsetattrib.exit:                    ; preds = %11, %15, %18, %21
  %26 = load i32, ptr @hf_scsi_osd_getsetattrib, align 4
  %27 = tail call ptr @proto_tree_add_item(ptr noundef %2, i32 noundef %26, ptr noundef %0, i32 noundef %14, i32 noundef 1, i32 noundef 0)
  %28 = add i32 %3, 2
  %29 = load i32, ptr @hf_scsi_osd_timestamps_control, align 4
  %30 = tail call ptr @proto_tree_add_item(ptr noundef %2, i32 noundef %29, ptr noundef %0, i32 noundef %28, i32 noundef 1, i32 noundef 0)
  %31 = add i32 %3, 6
  %32 = load i32, ptr @hf_scsi_osd_partition_id, align 4
  %33 = tail call fastcc ptr @dissect_osd_partition_id(ptr noundef %1, ptr noundef %0, i32 noundef %31, ptr noundef %2, i32 noundef %32, ptr noundef %9, i1 noundef zeroext false, i1 noundef zeroext false)
  %34 = add i32 %3, 14
  %35 = load i32, ptr @hf_scsi_osd_user_object_id, align 4
  %36 = tail call ptr @proto_tree_add_item(ptr noundef %2, i32 noundef %35, ptr noundef %0, i32 noundef %34, i32 noundef 8, i32 noundef 0)
  %37 = add i32 %3, 42
  tail call fastcc void @dissect_osd_attribute_parameters(ptr noundef %1, ptr noundef %0, i32 noundef %37, ptr noundef %2, ptr noundef %7)
  %38 = add i32 %3, 70
  tail call fastcc void @dissect_osd_capability(ptr noundef %0, i32 noundef %38, ptr noundef %2)
  %39 = add i32 %3, 150
  %40 = load i32, ptr @ett_osd_security_parameters, align 4
  %41 = tail call ptr @proto_tree_add_subtree(ptr noundef %2, ptr noundef %0, i32 noundef %39, i32 noundef 40, i32 noundef %40, ptr noundef null, ptr noundef nonnull @.str.294)
  %42 = load i32, ptr @hf_scsi_osd_ricv, align 4
  %43 = tail call ptr @proto_tree_add_item(ptr noundef %41, i32 noundef %42, ptr noundef %0, i32 noundef %39, i32 noundef 20, i32 noundef 0)
  %44 = add i32 %3, 170
  %45 = load i32, ptr @hf_scsi_osd_request_nonce, align 4
  %46 = tail call ptr @proto_tree_add_item(ptr noundef %41, i32 noundef %45, ptr noundef %0, i32 noundef %44, i32 noundef 12, i32 noundef 0)
  %47 = add i32 %3, 182
  %48 = load i32, ptr @hf_scsi_osd_diicvo, align 4
  %49 = tail call ptr @proto_tree_add_item(ptr noundef %41, i32 noundef %48, ptr noundef %0, i32 noundef %47, i32 noundef 4, i32 noundef 0)
  %50 = add i32 %3, 186
  %51 = load i32, ptr @hf_scsi_osd_doicvo, align 4
  %52 = tail call ptr @proto_tree_add_item(ptr noundef %41, i32 noundef %51, ptr noundef %0, i32 noundef %50, i32 noundef 4, i32 noundef 0)
  br label %53

53:                                               ; preds = %10, %dissect_osd_getsetattrib.exit
  %brmerge58 = or i1 %5, %.not
  br i1 %brmerge58, label %55, label %54

54:                                               ; preds = %53
  tail call fastcc void @dissect_osd_attribute_data_out(ptr noundef %1, ptr noundef %0, ptr noundef %2, ptr noundef %7, ptr noundef %9)
  br label %55

55:                                               ; preds = %53, %54
  %.not.i60 = icmp eq ptr %7, null
  %56 = or i1 %5, %.not.i60
  %or.cond = or i1 %4, %56
  br i1 %or.cond, label %dissect_osd_attribute_data_in.exit, label %57

57:                                               ; preds = %55
  %58 = getelementptr inbounds nuw i8, ptr %7, i64 8
  %59 = load ptr, ptr %58, align 8
  %.not14.i = icmp eq ptr %59, null
  br i1 %.not14.i, label %dissect_osd_attribute_data_in.exit, label %60

60:                                               ; preds = %57
  %61 = getelementptr inbounds nuw i8, ptr %59, i64 64
  %62 = load ptr, ptr %61, align 8
  %.not15.i = icmp eq ptr %62, null
  br i1 %.not15.i, label %dissect_osd_attribute_data_in.exit, label %63

63:                                               ; preds = %60
  %64 = getelementptr inbounds nuw i8, ptr %62, i64 2
  %65 = load i8, ptr %64, align 2
  %cond.i = icmp eq i8 %65, 3
  br i1 %cond.i, label %66, label %dissect_osd_attribute_data_in.exit

66:                                               ; preds = %63
  %67 = getelementptr inbounds nuw i8, ptr %62, i64 12
  %68 = load i32, ptr %67, align 4
  %.not16.i = icmp eq i32 %68, 0
  br i1 %.not16.i, label %dissect_osd_attribute_data_in.exit, label %69

69:                                               ; preds = %66
  %70 = getelementptr inbounds nuw i8, ptr %62, i64 16
  %71 = load i32, ptr %70, align 4
  %72 = getelementptr inbounds nuw i8, ptr %62, i64 32
  %73 = load i8, ptr %72, align 4, !range !9, !noundef !10
  %74 = trunc nuw i8 %73 to i1
  tail call fastcc void @dissect_osd_attributes_list(ptr noundef %1, ptr noundef %0, i32 noundef %71, ptr noundef %2, ptr noundef %9, i1 noundef zeroext %74)
  br label %dissect_osd_attribute_data_in.exit

dissect_osd_attribute_data_in.exit:               ; preds = %69, %66, %63, %60, %57, %55
  ret void
}